target datalayout = "e-m:e-p270:32:32-p271:32:32-p272:64:64-i64:64-i128:128-f80:128-n8:16:32:64-S128"
target triple = "x86_64-pc-linux-gnu"

%struct.hwloc_internal_memattr_s = type { ptr, i64, i32, i32, ptr }
%struct.hwloc_internal_memattr_target_s = type { ptr, i32, i32, i64, i64, i32, ptr }

; Function Attrs: nounwind uwtable
define internal ptr @hwloc__memattr_get_target(ptr noundef %0, i32 noundef %1, i64 noundef %2, i32 noundef %3, i32 noundef %4) #0 {
  %6 = alloca ptr, align 8
  %7 = alloca ptr, align 8
  %8 = alloca i32, align 4
  %9 = alloca i64, align 8
  %10 = alloca i32, align 4
  %11 = alloca i32, align 4
  %12 = alloca ptr, align 8
  %13 = alloca ptr, align 8
  %14 = alloca i32, align 4
  %15 = alloca i32, align 4
  store ptr %0, ptr %7, align 8, !tbaa !34
  store i32 %1, ptr %8, align 4, !tbaa !45
  store i64 %2, ptr %9, align 8, !tbaa !37
  store i32 %3, ptr %10, align 4, !tbaa !45
  store i32 %4, ptr %11, align 4, !tbaa !45
  call void @llvm.lifetime.start.p0(i64 8, ptr %12) #14
  call void @llvm.lifetime.start.p0(i64 8, ptr %13) #14
  call void @llvm.lifetime.start.p0(i64 4, ptr %14) #14
  store i32 0, ptr %14, align 4, !tbaa !45
  br label %16

16:                                               ; preds = %70, %5
  %17 = load i32, ptr %14, align 4, !tbaa !45
  %18 = load ptr, ptr %7, align 8, !tbaa !34
  %19 = getelementptr inbounds nuw %struct.hwloc_internal_memattr_s, ptr %18, i32 0, i32 3
  %20 = load i32, ptr %19, align 4, !tbaa !43
  %21 = icmp ult i32 %17, %20
  br i1 %21, label %22, label %73

22:                                               ; preds = %16
  %23 = load i32, ptr %8, align 4, !tbaa !45
  %24 = load ptr, ptr %7, align 8, !tbaa !34
  %25 = getelementptr inbounds nuw %struct.hwloc_internal_memattr_s, ptr %24, i32 0, i32 4
  %26 = load ptr, ptr %25, align 8, !tbaa !44
  %27 = load i32, ptr %14, align 4, !tbaa !45
  %28 = zext i32 %27 to i64
  %29 = getelementptr inbounds nuw %struct.hwloc_internal_memattr_target_s, ptr %26, i64 %28
  %30 = getelementptr inbounds nuw %struct.hwloc_internal_memattr_target_s, ptr %29, i32 0, i32 1
  %31 = load i32, ptr %30, align 8, !tbaa !95
  %32 = icmp eq i32 %23, %31
  br i1 %32, label %33, label %69

33:                                               ; preds = %22
  %34 = load i64, ptr %9, align 8, !tbaa !37
  %35 = icmp ne i64 %34, -1
  br i1 %35, label %36, label %47

36:                                               ; preds = %33
  %37 = load i64, ptr %9, align 8, !tbaa !37
  %38 = load ptr, ptr %7, align 8, !tbaa !34
  %39 = getelementptr inbounds nuw %struct.hwloc_internal_memattr_s, ptr %38, i32 0, i32 4
  %40 = load ptr, ptr %39, align 8, !tbaa !44
  %41 = load i32, ptr %14, align 4, !tbaa !45
  %42 = zext i32 %41 to i64
  %43 = getelementptr inbounds nuw %struct.hwloc_internal_memattr_target_s, ptr %40, i64 %42
  %44 = getelementptr inbounds nuw %struct.hwloc_internal_memattr_target_s, ptr %43, i32 0, i32 3
  %45 = load i64, ptr %44, align 8, !tbaa !96
  %46 = icmp eq i64 %37, %45
  br i1 %46, label %61, label %47

47:                                               ; preds = %36, %33
  %48 = load i32, ptr %10, align 4, !tbaa !45
  %49 = icmp ne i32 %48, -1
  br i1 %49, label %50, label %68

50:                                               ; preds = %47
  %51 = load i32, ptr %10, align 4, !tbaa !45
  %52 = load ptr, ptr %7, align 8, !tbaa !34
  %53 = getelementptr inbounds nuw %struct.hwloc_internal_memattr_s, ptr %52, i32 0, i32 4
  %54 = load ptr, ptr %53, align 8, !tbaa !44
  %55 = load i32, ptr %14, align 4, !tbaa !45
  %56 = zext i32 %55 to i64
  %57 = getelementptr inbounds nuw %struct.hwloc_internal_memattr_target_s, ptr %54, i64 %56
  %58 = getelementptr inbounds nuw %struct.hwloc_internal_memattr_target_s, ptr %57, i32 0, i32 2
  %59 = load i32, ptr %58, align 4, !tbaa !97
  %60 = icmp eq i32 %51, %59
  br i1 %60, label %61, label %68

61:                                               ; preds = %50, %36
  %62 = load ptr, ptr %7, align 8, !tbaa !34
  %63 = getelementptr inbounds nuw %struct.hwloc_internal_memattr_s, ptr %62, i32 0, i32 4
  %64 = load ptr, ptr %63, align 8, !tbaa !44
  %65 = load i32, ptr %14, align 4, !tbaa !45
  %66 = zext i32 %65 to i64
  %67 = getelementptr inbounds nuw %struct.hwloc_internal_memattr_target_s, ptr %64, i64 %66
  store ptr %67, ptr %6, align 8
  store i32 1, ptr %15, align 4
  br label %127

68:                                               ; preds = %50, %47
  br label %69

69:                                               ; preds = %68, %22
  br label %70

70:                                               ; preds = %69
  %71 = load i32, ptr %14, align 4, !tbaa !45
  %72 = add i32 %71, 1
  store i32 %72, ptr %14, align 4, !tbaa !45
  br label %16, !llvm.loop !98

73:                                               ; preds = %16
  %74 = load i32, ptr %11, align 4, !tbaa !45
  %75 = icmp ne i32 %74, 0
  br i1 %75, label %77, label %76

76:                                               ; preds = %73
  store ptr null, ptr %6, align 8
  store i32 1, ptr %15, align 4
  br label %127

77:                                               ; preds = %73
  %78 = load ptr, ptr %7, align 8, !tbaa !34
  %79 = getelementptr inbounds nuw %struct.hwloc_internal_memattr_s, ptr %78, i32 0, i32 4
  %80 = load ptr, ptr %79, align 8, !tbaa !44
  %81 = load ptr, ptr %7, align 8, !tbaa !34
  %82 = getelementptr inbounds nuw %struct.hwloc_internal_memattr_s, ptr %81, i32 0, i32 3
  %83 = load i32, ptr %82, align 4, !tbaa !43
  %84 = add i32 %83, 1
  %85 = zext i32 %84 to i64
  %86 = mul i64 %85, 48
  %87 = call ptr @realloc(ptr noundef %80, i64 noundef %86) #17
  store ptr %87, ptr %12, align 8, !tbaa !49
  %88 = load ptr, ptr %12, align 8, !tbaa !49
  %89 = icmp ne ptr %88, null
  br i1 %89, label %91, label %90

90:                                               ; preds = %77
  store ptr null, ptr %6, align 8
  store i32 1, ptr %15, align 4
  br label %127

91:                                               ; preds = %77
  %92 = load ptr, ptr %12, align 8, !tbaa !49
  %93 = load ptr, ptr %7, align 8, !tbaa !34
  %94 = getelementptr inbounds nuw %struct.hwloc_internal_memattr_s, ptr %93, i32 0, i32 4
  store ptr %92, ptr %94, align 8, !tbaa !44
  %95 = load ptr, ptr %12, align 8, !tbaa !49
  %96 = load ptr, ptr %7, align 8, !tbaa !34
  %97 = getelementptr inbounds nuw %struct.hwloc_internal_memattr_s, ptr %96, i32 0, i32 3
  %98 = load i32, ptr %97, align 4, !tbaa !43
  %99 = zext i32 %98 to i64
  %100 = getelementptr inbounds nuw %struct.hwloc_internal_memattr_target_s, ptr %95, i64 %99
  store ptr %100, ptr %13, align 8, !tbaa !49
  %101 = load i32, ptr %8, align 4, !tbaa !45
  %102 = load ptr, ptr %13, align 8, !tbaa !49
  %103 = getelementptr inbounds nuw %struct.hwloc_internal_memattr_target_s, ptr %102, i32 0, i32 1
  store i32 %101, ptr %103, align 8, !tbaa !95
  %104 = load i64, ptr %9, align 8, !tbaa !37
  %105 = load ptr, ptr %13, align 8, !tbaa !49
  %106 = getelementptr inbounds nuw %struct.hwloc_internal_memattr_target_s, ptr %105, i32 0, i32 3
  store i64 %104, ptr %106, align 8, !tbaa !96
  %107 = load i32, ptr %10, align 4, !tbaa !45
  %108 = load ptr, ptr %13, align 8, !tbaa !49
  %109 = getelementptr inbounds nuw %struct.hwloc_internal_memattr_target_s, ptr %108, i32 0, i32 2
  store i32 %107, ptr %109, align 4, !tbaa !97
  %110 = load ptr, ptr %13, align 8, !tbaa !49
  %111 = getelementptr inbounds nuw %struct.hwloc_internal_memattr_target_s, ptr %110, i32 0, i32 0
  store ptr null, ptr %111, align 8, !tbaa !58
  %112 = load ptr, ptr %7, align 8, !tbaa !34
  %113 = getelementptr inbounds nuw %struct.hwloc_internal_memattr_s, ptr %112, i32 0, i32 2
  %114 = load i32, ptr %113, align 8, !tbaa !42
  %115 = and i32 %114, -3
  store i32 %115, ptr %113, align 8, !tbaa !42
  %116 = load ptr, ptr %13, align 8, !tbaa !49
  %117 = getelementptr inbounds nuw %struct.hwloc_internal_memattr_target_s, ptr %116, i32 0, i32 5
  store i32 0, ptr %117, align 8, !tbaa !50
  %118 = load ptr, ptr %13, align 8, !tbaa !49
  %119 = getelementptr inbounds nuw %struct.hwloc_internal_memattr_target_s, ptr %118, i32 0, i32 6
  store ptr null, ptr %119, align 8, !tbaa !54
  %120 = load ptr, ptr %13, align 8, !tbaa !49
  %121 = getelementptr inbounds nuw %struct.hwloc_internal_memattr_target_s, ptr %120, i32 0, i32 4
  store i64 0, ptr %121, align 8, !tbaa !85
  %122 = load ptr, ptr %7, align 8, !tbaa !34
  %123 = getelementptr inbounds nuw %struct.hwloc_internal_memattr_s, ptr %122, i32 0, i32 3
  %124 = load i32, ptr %123, align 4, !tbaa !43
  %125 = add i32 %124, 1
  store i32 %125, ptr %123, align 4, !tbaa !43
  %126 = load ptr, ptr %13, align 8, !tbaa !49
  store ptr %126, ptr %6, align 8
  store i32 1, ptr %15, align 4
  br label %127

127:                                              ; preds = %91, %90, %76, %61
  call void @llvm.lifetime.end.p0(i64 4, ptr %14) #14
  call void @llvm.lifetime.end.p0(i64 8, ptr %13) #14
  call void @llvm.lifetime.end.p0(i64 8, ptr %12) #14
  %128 = load ptr, ptr %6, align 8
  ret ptr %128
}