; Function Attrs: nounwind uwtable
define internal fastcc ptr @hwloc__memattr_get_target(ptr noundef captures(none) %0, i32 noundef %1, i64 noundef %2, i32 noundef %3, i32 noundef range(i32 0, 2) %4) unnamed_addr #3 {
  %6 = getelementptr inbounds nuw i8, ptr %0, i64 20
  %7 = load i32, ptr %6, align 4, !tbaa !38
  %.not57 = icmp eq i32 %7, 0
  br i1 %.not57, label %._crit_edge, label %.lr.ph

.lr.ph:                                           ; preds = %5
  %8 = getelementptr inbounds nuw i8, ptr %0, i64 24
  %9 = load ptr, ptr %8, align 8, !tbaa !39
  %.not43 = icmp eq i64 %2, -1
  %.not44 = icmp eq i32 %3, -1
  br i1 %.not44, label %.lr.ph.split.us, label %.lr.ph.split

.lr.ph.split.us:                                  ; preds = %.lr.ph
  br i1 %.not43, label %._crit_edge, label %.lr.ph.split.us.split.preheader

.lr.ph.split.us.split.preheader:                  ; preds = %.lr.ph.split.us
  %wide.trip.count77 = zext i32 %7 to i64
  br label %.lr.ph.split.us.split

.lr.ph.split.us.split:                            ; preds = %.lr.ph.split.us.split.preheader, %18
  %indvars.iv74 = phi i64 [ 0, %.lr.ph.split.us.split.preheader ], [ %indvars.iv.next75, %18 ]
  %10 = getelementptr inbounds nuw %struct.hwloc_internal_memattr_target_s, ptr %9, i64 %indvars.iv74
  %11 = getelementptr inbounds nuw i8, ptr %10, i64 8
  %12 = load i32, ptr %11, align 8, !tbaa !67
  %13 = icmp eq i32 %1, %12
  br i1 %13, label %14, label %18

14:                                               ; preds = %.lr.ph.split.us.split
  %15 = getelementptr inbounds nuw i8, ptr %10, i64 16
  %16 = load i64, ptr %15, align 8, !tbaa !66
  %17 = icmp eq i64 %2, %16
  br i1 %17, label %.loopexit, label %18

18:                                               ; preds = %14, %.lr.ph.split.us.split
  %indvars.iv.next75 = add nuw nsw i64 %indvars.iv74, 1
  %exitcond78.not = icmp eq i64 %indvars.iv.next75, %wide.trip.count77
  br i1 %exitcond78.not, label %._crit_edge, label %.lr.ph.split.us.split, !llvm.loop !92

.lr.ph.split:                                     ; preds = %.lr.ph
  %wide.trip.count72 = zext i32 %7 to i64
  br i1 %.not43, label %.lr.ph.split.split.us, label %.lr.ph.split.split

.lr.ph.split.split.us:                            ; preds = %.lr.ph.split, %27
  %indvars.iv69 = phi i64 [ %indvars.iv.next70, %27 ], [ 0, %.lr.ph.split ]
  %19 = getelementptr inbounds nuw %struct.hwloc_internal_memattr_target_s, ptr %9, i64 %indvars.iv69
  %20 = getelementptr inbounds nuw i8, ptr %19, i64 8
  %21 = load i32, ptr %20, align 8, !tbaa !67
  %22 = icmp eq i32 %1, %21
  br i1 %22, label %23, label %27

23:                                               ; preds = %.lr.ph.split.split.us
  %24 = getelementptr inbounds nuw %struct.hwloc_internal_memattr_target_s, ptr %9, i64 %indvars.iv69, i32 2
  %25 = load i32, ptr %24, align 4, !tbaa !68
  %26 = icmp eq i32 %3, %25
  br i1 %26, label %.loopexit, label %27

27:                                               ; preds = %23, %.lr.ph.split.split.us
  %indvars.iv.next70 = add nuw nsw i64 %indvars.iv69, 1
  %exitcond73.not = icmp eq i64 %indvars.iv.next70, %wide.trip.count72
  br i1 %exitcond73.not, label %._crit_edge, label %.lr.ph.split.split.us, !llvm.loop !92

.lr.ph.split.split:                               ; preds = %.lr.ph.split, %40
  %indvars.iv = phi i64 [ %indvars.iv.next, %40 ], [ 0, %.lr.ph.split ]
  %28 = getelementptr inbounds nuw %struct.hwloc_internal_memattr_target_s, ptr %9, i64 %indvars.iv
  %29 = getelementptr inbounds nuw i8, ptr %28, i64 8
  %30 = load i32, ptr %29, align 8, !tbaa !67
  %31 = icmp eq i32 %1, %30
  br i1 %31, label %32, label %40

32:                                               ; preds = %.lr.ph.split.split
  %33 = getelementptr inbounds nuw i8, ptr %28, i64 16
  %34 = load i64, ptr %33, align 8, !tbaa !66
  %35 = icmp eq i64 %2, %34
  br i1 %35, label %.loopexit, label %36

36:                                               ; preds = %32
  %37 = getelementptr inbounds nuw %struct.hwloc_internal_memattr_target_s, ptr %9, i64 %indvars.iv, i32 2
  %38 = load i32, ptr %37, align 4, !tbaa !68
  %39 = icmp eq i32 %3, %38
  br i1 %39, label %.loopexit, label %40

40:                                               ; preds = %.lr.ph.split.split, %36
  %indvars.iv.next = add nuw nsw i64 %indvars.iv, 1
  %exitcond.not = icmp eq i64 %indvars.iv.next, %wide.trip.count72
  br i1 %exitcond.not, label %._crit_edge, label %.lr.ph.split.split, !llvm.loop !92

._crit_edge:                                      ; preds = %40, %27, %18, %.lr.ph.split.us, %5
  %.not = icmp eq i32 %4, 0
  br i1 %.not, label %.loopexit, label %41

41:                                               ; preds = %._crit_edge
  %42 = getelementptr inbounds nuw i8, ptr %0, i64 24
  %43 = load ptr, ptr %42, align 8, !tbaa !39
  %44 = add i32 %7, 1
  %45 = zext i32 %44 to i64
  %46 = mul nuw nsw i64 %45, 48
  %47 = tail call ptr @realloc(ptr noundef %43, i64 noundef %46) #32
  %.not42 = icmp eq ptr %47, null
  br i1 %.not42, label %.loopexit, label %48

48:                                               ; preds = %41
  store ptr %47, ptr %42, align 8, !tbaa !39
  %49 = load i32, ptr %6, align 4, !tbaa !38
  %50 = zext i32 %49 to i64
  %51 = getelementptr inbounds nuw %struct.hwloc_internal_memattr_target_s, ptr %47, i64 %50
  %52 = getelementptr inbounds nuw i8, ptr %51, i64 8
  store i32 %1, ptr %52, align 8, !tbaa !67
  %53 = getelementptr inbounds nuw i8, ptr %51, i64 16
  store i64 %2, ptr %53, align 8, !tbaa !66
  %54 = getelementptr inbounds nuw i8, ptr %51, i64 12
  store i32 %3, ptr %54, align 4, !tbaa !68
  store ptr null, ptr %51, align 8, !tbaa !56
  %55 = getelementptr inbounds nuw i8, ptr %0, i64 16
  %56 = load i32, ptr %55, align 8, !tbaa !37
  %57 = and i32 %56, -3
  store i32 %57, ptr %55, align 8, !tbaa !37
  %58 = getelementptr inbounds nuw i8, ptr %51, i64 32
  store i32 0, ptr %58, align 8, !tbaa !40
  %59 = getelementptr inbounds nuw i8, ptr %51, i64 40
  store ptr null, ptr %59, align 8, !tbaa !44
  %60 = getelementptr inbounds nuw i8, ptr %51, i64 24
  store i64 0, ptr %60, align 8, !tbaa !87
  %61 = add i32 %49, 1
  store i32 %61, ptr %6, align 4, !tbaa !38
  br label %.loopexit

.loopexit:                                        ; preds = %32, %36, %23, %14, %41, %._crit_edge, %48
  %.037 = phi ptr [ %51, %48 ], [ null, %._crit_edge ], [ null, %41 ], [ %10, %14 ], [ %19, %23 ], [ %28, %36 ], [ %28, %32 ]
  ret ptr %.037
}